; Function Attrs: nounwind uwtable
define void @Abc_BufReplaceBufsByInvs(ptr noundef %0) local_unnamed_addr #2 {
  %2 = getelementptr inbounds nuw i8, ptr %0, i64 32
  %3 = load ptr, ptr %2, align 8, !tbaa !3
  %4 = getelementptr i8, ptr %3, i64 4
  %.val25 = load i32, ptr %4, align 4, !tbaa !24
  %5 = icmp sgt i32 %.val25, 0
  br i1 %5, label %.lr.ph, label %.critedge

.lr.ph:                                           ; preds = %1
  %6 = getelementptr inbounds nuw i8, ptr %0, i64 256
  br label %7

7:                                                ; preds = %.lr.ph, %35
  %indvars.iv = phi i64 [ 0, %.lr.ph ], [ %indvars.iv.next, %35 ]
  %8 = phi ptr [ %3, %.lr.ph ], [ %36, %35 ]
  %.027 = phi i32 [ 0, %.lr.ph ], [ %.1, %35 ]
  %9 = getelementptr i8, ptr %8, i64 8
  %.val19.val = load ptr, ptr %9, align 8, !tbaa !26
  %10 = getelementptr inbounds nuw ptr, ptr %.val19.val, i64 %indvars.iv
  %11 = load ptr, ptr %10, align 8, !tbaa !27
  %12 = icmp eq ptr %11, null
  br i1 %12, label %35, label %13

13:                                               ; preds = %7
  %14 = getelementptr i8, ptr %11, i64 20
  %.val20 = load i32, ptr %14, align 4
  %15 = and i32 %.val20, 15
  %.not = icmp eq i32 %15, 7
  br i1 %.not, label %16, label %35

16:                                               ; preds = %13
  %17 = tail call i32 @Abc_NodeIsBuf(ptr noundef nonnull %11) #17
  %.not18 = icmp eq i32 %17, 0
  br i1 %.not18, label %35, label %18

18:                                               ; preds = %16
  %19 = load ptr, ptr %6, align 8, !tbaa !122
  %20 = tail call ptr @Mio_LibraryReadInv(ptr noundef %19) #17
  %21 = getelementptr inbounds nuw i8, ptr %11, i64 56
  store ptr %20, ptr %21, align 8, !tbaa !40
  %.val23 = load ptr, ptr %11, align 8, !tbaa !31
  %22 = getelementptr i8, ptr %11, i64 32
  %.val24 = load ptr, ptr %22, align 8, !tbaa !32
  %23 = getelementptr i8, ptr %.val23, i64 32
  %.val23.val = load ptr, ptr %23, align 8, !tbaa !3
  %.val24.val = load i32, ptr %.val24, align 4, !tbaa !33
  %24 = getelementptr i8, ptr %.val23.val, i64 8
  %.val23.val.val = load ptr, ptr %24, align 8, !tbaa !26
  %25 = sext i32 %.val24.val to i64
  %26 = getelementptr inbounds ptr, ptr %.val23.val.val, i64 %25
  %27 = load ptr, ptr %26, align 8, !tbaa !27
  %28 = tail call ptr @Abc_NtkCreateNodeInv(ptr noundef nonnull %0, ptr noundef %27) #17
  %.val21 = load ptr, ptr %11, align 8, !tbaa !31
  %.val22 = load ptr, ptr %22, align 8, !tbaa !32
  %29 = getelementptr i8, ptr %.val21, i64 32
  %.val21.val = load ptr, ptr %29, align 8, !tbaa !3
  %.val22.val = load i32, ptr %.val22, align 4, !tbaa !33
  %30 = getelementptr i8, ptr %.val21.val, i64 8
  %.val21.val.val = load ptr, ptr %30, align 8, !tbaa !26
  %31 = sext i32 %.val22.val to i64
  %32 = getelementptr inbounds ptr, ptr %.val21.val.val, i64 %31
  %33 = load ptr, ptr %32, align 8, !tbaa !27
  tail call void @Abc_ObjPatchFanin(ptr noundef nonnull %11, ptr noundef %33, ptr noundef %28) #17
  %34 = add nsw i32 %.027, 1
  br label %35

35:                                               ; preds = %18, %13, %7, %16
  %.1 = phi i32 [ %.027, %7 ], [ %34, %18 ], [ %.027, %16 ], [ %.027, %13 ]
  %indvars.iv.next = add nuw nsw i64 %indvars.iv, 1
  %36 = load ptr, ptr %2, align 8, !tbaa !3
  %37 = getelementptr i8, ptr %36, i64 4
  %.val = load i32, ptr %37, align 4, !tbaa !24
  %38 = sext i32 %.val to i64
  %39 = icmp slt i64 %indvars.iv.next, %38
  br i1 %39, label %7, label %.critedge, !llvm.loop !140

.critedge:                                        ; preds = %35, %1
  %.0.lcssa = phi i32 [ 0, %1 ], [ %.1, %35 ]
  %40 = tail call i32 (ptr, ...) @printf(ptr noundef nonnull dereferenceable(1) @.str.19, i32 noundef %.0.lcssa)
  ret void
}